target datalayout = "e-m:e-p270:32:32-p271:32:32-p272:64:64-i64:64-i128:128-f80:128-n8:16:32:64-S128"
target triple = "x86_64-pc-linux-gnu"

; Function Attrs: nounwind uwtable
define void @dt_iop_image_linear_blend(ptr noalias noundef %0, float noundef %1, ptr noalias noundef %2, i64 noundef %3, i64 noundef %4, i64 noundef %5) #0 {
  %7 = alloca ptr, align 8
  %8 = alloca float, align 4
  %9 = alloca ptr, align 8
  %10 = alloca i64, align 8
  %11 = alloca i64, align 8
  %12 = alloca i64, align 8
  %13 = alloca i64, align 8
  %14 = alloca float, align 4
  %15 = alloca i64, align 8
  store ptr %0, ptr %7, align 8, !tbaa !17
  store float %1, ptr %8, align 4, !tbaa !29
  store ptr %2, ptr %9, align 8, !tbaa !17
  store i64 %3, ptr %10, align 8, !tbaa !21
  store i64 %4, ptr %11, align 8, !tbaa !21
  store i64 %5, ptr %12, align 8, !tbaa !21
  call void @llvm.lifetime.start.p0(i64 8, ptr %13) #9
  %16 = load i64, ptr %10, align 8, !tbaa !21
  %17 = load i64, ptr %11, align 8, !tbaa !21
  %18 = mul i64 %16, %17
  %19 = load i64, ptr %12, align 8, !tbaa !21
  %20 = mul i64 %18, %19
  store i64 %20, ptr %13, align 8, !tbaa !21
  call void @llvm.lifetime.start.p0(i64 4, ptr %14) #9
  %21 = load float, ptr %8, align 4, !tbaa !29
  %22 = fsub reassoc nsz arcp contract afn float 1.000000e+00, %21
  store float %22, ptr %14, align 4, !tbaa !29
  call void @llvm.lifetime.start.p0(i64 8, ptr %15) #9
  store i64 0, ptr %15, align 8, !tbaa !21
  br label %23

23:                                               ; preds = %45, %6
  %24 = load i64, ptr %15, align 8, !tbaa !21
  %25 = load i64, ptr %13, align 8, !tbaa !21
  %26 = icmp ult i64 %24, %25
  br i1 %26, label %28, label %27

27:                                               ; preds = %23
  call void @llvm.lifetime.end.p0(i64 8, ptr %15) #9
  br label %48

28:                                               ; preds = %23
  %29 = load float, ptr %8, align 4, !tbaa !29
  %30 = load ptr, ptr %7, align 8, !tbaa !17
  %31 = load i64, ptr %15, align 8, !tbaa !21
  %32 = getelementptr inbounds nuw float, ptr %30, i64 %31
  %33 = load float, ptr %32, align 4, !tbaa !29
  %34 = fmul reassoc nsz arcp contract afn float %29, %33
  %35 = load float, ptr %14, align 4, !tbaa !29
  %36 = load ptr, ptr %9, align 8, !tbaa !17
  %37 = load i64, ptr %15, align 8, !tbaa !21
  %38 = getelementptr inbounds nuw float, ptr %36, i64 %37
  %39 = load float, ptr %38, align 4, !tbaa !29
  %40 = fmul reassoc nsz arcp contract afn float %35, %39
  %41 = fadd reassoc nsz arcp contract afn float %34, %40
  %42 = load ptr, ptr %7, align 8, !tbaa !17
  %43 = load i64, ptr %15, align 8, !tbaa !21
  %44 = getelementptr inbounds nuw float, ptr %42, i64 %43
  store float %41, ptr %44, align 4, !tbaa !29
  br label %45

45:                                               ; preds = %28
  %46 = load i64, ptr %15, align 8, !tbaa !21
  %47 = add i64 %46, 1
  store i64 %47, ptr %15, align 8, !tbaa !21
  br label %23

48:                                               ; preds = %27
  call void @llvm.lifetime.end.p0(i64 4, ptr %14) #9
  call void @llvm.lifetime.end.p0(i64 8, ptr %13) #9
  ret void
}