; Function Attrs: nofree norecurse nosync nounwind memory(argmem: readwrite) uwtable
define void @dt_iop_image_linear_blend(ptr noalias noundef captures(none) %0, float noundef %1, ptr noalias noundef readonly captures(none) %2, i64 noundef %3, i64 noundef %4, i64 noundef %5) local_unnamed_addr #9 {
  %7 = mul i64 %4, %3
  %8 = mul i64 %7, %5
  %.not = icmp eq i64 %8, 0
  br i1 %.not, label %._crit_edge, label %.lr.ph

._crit_edge:                                      ; preds = %.lr.ph, %6
  ret void

.lr.ph:                                           ; preds = %6, %.lr.ph
  %.014 = phi i64 [ %16, %.lr.ph ], [ 0, %6 ]
  %9 = getelementptr inbounds nuw float, ptr %0, i64 %.014
  %10 = load float, ptr %9, align 4, !tbaa !32
  %11 = getelementptr inbounds nuw float, ptr %2, i64 %.014
  %12 = load float, ptr %11, align 4, !tbaa !32
  %13 = fsub reassoc nsz arcp contract afn float %10, %12
  %14 = fmul reassoc nsz arcp contract afn float %13, %1
  %15 = fadd reassoc nsz arcp contract afn float %14, %12
  store float %15, ptr %9, align 4, !tbaa !32
  %16 = add nuw i64 %.014, 1
  %exitcond.not = icmp eq i64 %16, %8
  br i1 %exitcond.not, label %._crit_edge, label %.lr.ph
}